; Function Attrs: mustprogress uwtable
define dso_local void @_ZN3net21QuicClientSessionBaseC2EPNS_14QuicConnectionEPNS_26QuicClientPushPromiseIndexERKNS_10QuicConfigE(ptr noundef nonnull align 8 dereferenceable(2140) %this, ptr noundef %connection, ptr noundef %push_promise_index, ptr noundef nonnull align 8 dereferenceable(600) %config) unnamed_addr #0 align 2 {
entry:
  tail call void @_ZN3net15QuicSpdySessionC2EPNS_14QuicConnectionERKNS_10QuicConfigE(ptr noundef nonnull align 8 dereferenceable(2057) %this, ptr noundef %connection, ptr noundef nonnull align 8 dereferenceable(600) %config)
  %0 = getelementptr inbounds i8, ptr %this, i64 2064
  store ptr getelementptr inbounds ({ [58 x ptr], [6 x ptr] }, ptr @_ZTVN3net21QuicClientSessionBaseE, i64 0, i32 0, i64 2), ptr %this, align 8
  store ptr getelementptr inbounds ({ [58 x ptr], [6 x ptr] }, ptr @_ZTVN3net21QuicClientSessionBaseE, i64 0, i32 1, i64 2), ptr %0, align 8
  %push_promise_index_ = getelementptr inbounds i8, ptr %this, i64 2072
  store ptr %push_promise_index, ptr %push_promise_index_, align 8
  %promised_by_id_ = getelementptr inbounds i8, ptr %this, i64 2080
  %_M_single_bucket.i.i = getelementptr inbounds i8, ptr %this, i64 2128
  store ptr %_M_single_bucket.i.i, ptr %promised_by_id_, align 8
  %_M_bucket_count.i.i = getelementptr inbounds i8, ptr %this, i64 2088
  store i64 1, ptr %_M_bucket_count.i.i, align 8
  %_M_before_begin.i.i = getelementptr inbounds i8, ptr %this, i64 2096
  %_M_rehash_policy.i.i = getelementptr inbounds i8, ptr %this, i64 2112
  tail call void @llvm.memset.p0.i64(ptr noundef nonnull align 8 dereferenceable(16) %_M_before_begin.i.i, i8 0, i64 16, i1 false)
  store float 1.000000e+00, ptr %_M_rehash_policy.i.i, align 8
  %_M_next_resize.i.i.i = getelementptr inbounds i8, ptr %this, i64 2120
  tail call void @llvm.memset.p0.i64(ptr noundef nonnull align 8 dereferenceable(20) %_M_next_resize.i.i.i, i8 0, i64 20, i1 false)
  ret void
}